target datalayout = "e-m:e-p270:32:32-p271:32:32-p272:64:64-i64:64-i128:128-f80:128-n8:16:32:64-S128"
target triple = "x86_64-pc-linux-gnu"

%struct.CVodeMemRec = type { double, ptr, ptr, i32, i32, i32, double, double, ptr, i32, ptr, ptr, i32, ptr, i32, i32, double, double, ptr, i32, i32, i32, ptr, ptr, ptr, i32, i32, ptr, ptr, ptr, i32, double, i32, i32, double, ptr, ptr, i32, ptr, ptr, i32, i32, i32, double, ptr, ptr, [13 x ptr], ptr, ptr, ptr, ptr, ptr, [13 x ptr], ptr, ptr, ptr, ptr, [13 x ptr], ptr, ptr, ptr, ptr, ptr, i32, [13 x ptr], ptr, ptr, ptr, ptr, ptr, i32, double, i32, i32, i32, i32, i32, double, double, double, double, double, double, double, double, [14 x double], [6 x double], [13 x double], double, double, double, double, double, double, double, double, double, double, double, i32, ptr, i32, i64, i32, i32, i32, i32, i32, double, double, double, i64, i64, i64, i64, i64, i64, i64, i64, i64, ptr, i64, i64, ptr, i64, i64, i64, i64, i64, i64, i32, i64, i64, i64, i64, i64, i64, double, double, double, ptr, ptr, ptr, ptr, ptr, i32, i32, i64, double, double, double, i32, double, i32, i32, i32, i32, i32, i32, i32, i32, i32, i32, i32, i32, i32, i32, i32, i32, ptr, ptr, ptr, i32, [6 x [4 x double]], i32, i64, ptr, i32, ptr, ptr, double, double, double, ptr, ptr, ptr, double, double, i32, i32, i64, ptr, i32, i32, ptr, i32 }
%struct._generic_N_Vector = type { ptr, ptr }
%struct._generic_N_Vector_Ops = type { ptr, ptr, ptr, ptr, ptr, ptr, ptr, ptr, ptr, ptr, ptr, ptr, ptr, ptr, ptr, ptr, ptr, ptr, ptr, ptr, ptr, ptr, ptr, ptr, ptr }
%struct.CVDlsMemRec = type { i32, i64, i64, i64, i64, i32, ptr, ptr, ptr, ptr, ptr, ptr, ptr, i64, i64, i64, i64 }

@.str = private unnamed_addr constant [8 x i8] c"CVSBAND\00", align 1
@.str.1 = private unnamed_addr constant [7 x i8] c"CVBand\00", align 1
@.str.2 = private unnamed_addr constant [27 x i8] c"Integrator memory is NULL.\00", align 1
@.str.3 = private unnamed_addr constant [48 x i8] c"A required vector operation is not implemented.\00", align 1
@.str.4 = private unnamed_addr constant [25 x i8] c"A memory request failed.\00", align 1
@.str.5 = private unnamed_addr constant [63 x i8] c"Illegal bandwidth parameter(s). Must have 0 <=  ml, mu <= N-1.\00", align 1

; Function Attrs: nounwind uwtable
define i32 @CVBand(ptr noundef %0, i64 noundef %1, i64 noundef %2, i64 noundef %3) #0 {
  %5 = alloca i32, align 4
  %6 = alloca ptr, align 8
  %7 = alloca i64, align 8
  %8 = alloca i64, align 8
  %9 = alloca i64, align 8
  %10 = alloca ptr, align 8
  %11 = alloca ptr, align 8
  %12 = alloca i32, align 4
  store ptr %0, ptr %6, align 8, !tbaa !3
  store i64 %1, ptr %7, align 8, !tbaa !7
  store i64 %2, ptr %8, align 8, !tbaa !7
  store i64 %3, ptr %9, align 8, !tbaa !7
  call void @llvm.lifetime.start.p0(i64 8, ptr %10) #5
  call void @llvm.lifetime.start.p0(i64 8, ptr %11) #5
  %13 = load ptr, ptr %6, align 8, !tbaa !3
  %14 = icmp eq ptr %13, null
  br i1 %14, label %15, label %16

15:                                               ; preds = %4
  call void (ptr, i32, ptr, ptr, ptr, ...) @cvProcessError(ptr noundef null, i32 noundef -1, ptr noundef @.str, ptr noundef @.str.1, ptr noundef @.str.2)
  store i32 -1, ptr %5, align 4
  store i32 1, ptr %12, align 4
  br label %196

16:                                               ; preds = %4
  %17 = load ptr, ptr %6, align 8, !tbaa !3
  store ptr %17, ptr %10, align 8, !tbaa !9
  %18 = load ptr, ptr %10, align 8, !tbaa !9
  %19 = getelementptr inbounds nuw %struct.CVodeMemRec, ptr %18, i32 0, i32 50
  %20 = load ptr, ptr %19, align 8, !tbaa !11
  %21 = getelementptr inbounds nuw %struct._generic_N_Vector, ptr %20, i32 0, i32 1
  %22 = load ptr, ptr %21, align 8, !tbaa !22
  %23 = getelementptr inbounds nuw %struct._generic_N_Vector_Ops, ptr %22, i32 0, i32 4
  %24 = load ptr, ptr %23, align 8, !tbaa !25
  %25 = icmp eq ptr %24, null
  br i1 %25, label %26, label %28

26:                                               ; preds = %16
  %27 = load ptr, ptr %10, align 8, !tbaa !9
  call void (ptr, i32, ptr, ptr, ptr, ...) @cvProcessError(ptr noundef %27, i32 noundef -3, ptr noundef @.str, ptr noundef @.str.1, ptr noundef @.str.3)
  store i32 -3, ptr %5, align 4
  store i32 1, ptr %12, align 4
  br label %196

28:                                               ; preds = %16
  %29 = load ptr, ptr %10, align 8, !tbaa !9
  %30 = getelementptr inbounds nuw %struct.CVodeMemRec, ptr %29, i32 0, i32 143
  %31 = load ptr, ptr %30, align 8, !tbaa !27
  %32 = icmp ne ptr %31, null
  br i1 %32, label %33, label %38

33:                                               ; preds = %28
  %34 = load ptr, ptr %10, align 8, !tbaa !9
  %35 = getelementptr inbounds nuw %struct.CVodeMemRec, ptr %34, i32 0, i32 143
  %36 = load ptr, ptr %35, align 8, !tbaa !27
  %37 = load ptr, ptr %10, align 8, !tbaa !9
  call void %36(ptr noundef %37)
  br label %38

38:                                               ; preds = %33, %28
  %39 = load ptr, ptr %10, align 8, !tbaa !9
  %40 = getelementptr inbounds nuw %struct.CVodeMemRec, ptr %39, i32 0, i32 140
  store ptr @cvBandInit, ptr %40, align 8, !tbaa !28
  %41 = load ptr, ptr %10, align 8, !tbaa !9
  %42 = getelementptr inbounds nuw %struct.CVodeMemRec, ptr %41, i32 0, i32 141
  store ptr @cvBandSetup, ptr %42, align 8, !tbaa !29
  %43 = load ptr, ptr %10, align 8, !tbaa !9
  %44 = getelementptr inbounds nuw %struct.CVodeMemRec, ptr %43, i32 0, i32 142
  store ptr @cvBandSolve, ptr %44, align 8, !tbaa !30
  %45 = load ptr, ptr %10, align 8, !tbaa !9
  %46 = getelementptr inbounds nuw %struct.CVodeMemRec, ptr %45, i32 0, i32 143
  store ptr @cvBandFree, ptr %46, align 8, !tbaa !27
  store ptr null, ptr %11, align 8, !tbaa !31
  %47 = call noalias ptr @malloc(i64 noundef 136) #6
  store ptr %47, ptr %11, align 8, !tbaa !31
  %48 = load ptr, ptr %11, align 8, !tbaa !31
  %49 = icmp eq ptr %48, null
  br i1 %49, label %50, label %52

50:                                               ; preds = %38
  %51 = load ptr, ptr %10, align 8, !tbaa !9
  call void (ptr, i32, ptr, ptr, ptr, ...) @cvProcessError(ptr noundef %51, i32 noundef -4, ptr noundef @.str, ptr noundef @.str.1, ptr noundef @.str.4)
  store i32 -4, ptr %5, align 4
  store i32 1, ptr %12, align 4
  br label %196

52:                                               ; preds = %38
  %53 = load ptr, ptr %11, align 8, !tbaa !31
  %54 = getelementptr inbounds nuw %struct.CVDlsMemRec, ptr %53, i32 0, i32 0
  store i32 2, ptr %54, align 8, !tbaa !33
  %55 = load ptr, ptr %11, align 8, !tbaa !31
  %56 = getelementptr inbounds nuw %struct.CVDlsMemRec, ptr %55, i32 0, i32 5
  store i32 1, ptr %56, align 8, !tbaa !36
  %57 = load ptr, ptr %11, align 8, !tbaa !31
  %58 = getelementptr inbounds nuw %struct.CVDlsMemRec, ptr %57, i32 0, i32 7
  store ptr null, ptr %58, align 8, !tbaa !37
  %59 = load ptr, ptr %11, align 8, !tbaa !31
  %60 = getelementptr inbounds nuw %struct.CVDlsMemRec, ptr %59, i32 0, i32 8
  store ptr null, ptr %60, align 8, !tbaa !38
  %61 = load ptr, ptr %11, align 8, !tbaa !31
  %62 = getelementptr inbounds nuw %struct.CVDlsMemRec, ptr %61, i32 0, i32 16
  store i64 0, ptr %62, align 8, !tbaa !39
  %63 = load ptr, ptr %10, align 8, !tbaa !9
  %64 = getelementptr inbounds nuw %struct.CVodeMemRec, ptr %63, i32 0, i32 158
  store i32 1, ptr %64, align 4, !tbaa !40
  %65 = load i64, ptr %7, align 8, !tbaa !7
  %66 = load ptr, ptr %11, align 8, !tbaa !31
  %67 = getelementptr inbounds nuw %struct.CVDlsMemRec, ptr %66, i32 0, i32 1
  store i64 %65, ptr %67, align 8, !tbaa !41
  %68 = load i64, ptr %9, align 8, !tbaa !7
  %69 = load ptr, ptr %11, align 8, !tbaa !31
  %70 = getelementptr inbounds nuw %struct.CVDlsMemRec, ptr %69, i32 0, i32 2
  store i64 %68, ptr %70, align 8, !tbaa !42
  %71 = load i64, ptr %8, align 8, !tbaa !7
  %72 = load ptr, ptr %11, align 8, !tbaa !31
  %73 = getelementptr inbounds nuw %struct.CVDlsMemRec, ptr %72, i32 0, i32 3
  store i64 %71, ptr %73, align 8, !tbaa !43
  %74 = load ptr, ptr %11, align 8, !tbaa !31
  %75 = getelementptr inbounds nuw %struct.CVDlsMemRec, ptr %74, i32 0, i32 2
  %76 = load i64, ptr %75, align 8, !tbaa !42
  %77 = icmp slt i64 %76, 0
  br i1 %77, label %95, label %78

78:                                               ; preds = %52
  %79 = load ptr, ptr %11, align 8, !tbaa !31
  %80 = getelementptr inbounds nuw %struct.CVDlsMemRec, ptr %79, i32 0, i32 3
  %81 = load i64, ptr %80, align 8, !tbaa !43
  %82 = icmp slt i64 %81, 0
  br i1 %82, label %95, label %83

83:                                               ; preds = %78
  %84 = load ptr, ptr %11, align 8, !tbaa !31
  %85 = getelementptr inbounds nuw %struct.CVDlsMemRec, ptr %84, i32 0, i32 2
  %86 = load i64, ptr %85, align 8, !tbaa !42
  %87 = load i64, ptr %7, align 8, !tbaa !7
  %88 = icmp sge i64 %86, %87
  br i1 %88, label %95, label %89

89:                                               ; preds = %83
  %90 = load ptr, ptr %11, align 8, !tbaa !31
  %91 = getelementptr inbounds nuw %struct.CVDlsMemRec, ptr %90, i32 0, i32 3
  %92 = load i64, ptr %91, align 8, !tbaa !43
  %93 = load i64, ptr %7, align 8, !tbaa !7
  %94 = icmp sge i64 %92, %93
  br i1 %94, label %95, label %98

95:                                               ; preds = %89, %83, %78, %52
  %96 = load ptr, ptr %10, align 8, !tbaa !9
  call void (ptr, i32, ptr, ptr, ptr, ...) @cvProcessError(ptr noundef %96, i32 noundef -3, ptr noundef @.str, ptr noundef @.str.1, ptr noundef @.str.5)
  %97 = load ptr, ptr %11, align 8, !tbaa !31
  call void @free(ptr noundef %97) #5
  store ptr null, ptr %11, align 8, !tbaa !31
  store i32 -3, ptr %5, align 4
  store i32 1, ptr %12, align 4
  br label %196

98:                                               ; preds = %89
  %99 = load i64, ptr %7, align 8, !tbaa !7
  %100 = sub nsw i64 %99, 1
  %101 = load ptr, ptr %11, align 8, !tbaa !31
  %102 = getelementptr inbounds nuw %struct.CVDlsMemRec, ptr %101, i32 0, i32 3
  %103 = load i64, ptr %102, align 8, !tbaa !43
  %104 = load ptr, ptr %11, align 8, !tbaa !31
  %105 = getelementptr inbounds nuw %struct.CVDlsMemRec, ptr %104, i32 0, i32 2
  %106 = load i64, ptr %105, align 8, !tbaa !42
  %107 = add nsw i64 %103, %106
  %108 = icmp slt i64 %100, %107
  br i1 %108, label %109, label %112

109:                                              ; preds = %98
  %110 = load i64, ptr %7, align 8, !tbaa !7
  %111 = sub nsw i64 %110, 1
  br label %120

112:                                              ; preds = %98
  %113 = load ptr, ptr %11, align 8, !tbaa !31
  %114 = getelementptr inbounds nuw %struct.CVDlsMemRec, ptr %113, i32 0, i32 3
  %115 = load i64, ptr %114, align 8, !tbaa !43
  %116 = load ptr, ptr %11, align 8, !tbaa !31
  %117 = getelementptr inbounds nuw %struct.CVDlsMemRec, ptr %116, i32 0, i32 2
  %118 = load i64, ptr %117, align 8, !tbaa !42
  %119 = add nsw i64 %115, %118
  br label %120

120:                                              ; preds = %112, %109
  %121 = phi i64 [ %111, %109 ], [ %119, %112 ]
  %122 = load ptr, ptr %11, align 8, !tbaa !31
  %123 = getelementptr inbounds nuw %struct.CVDlsMemRec, ptr %122, i32 0, i32 4
  store i64 %121, ptr %123, align 8, !tbaa !44
  %124 = load ptr, ptr %11, align 8, !tbaa !31
  %125 = getelementptr inbounds nuw %struct.CVDlsMemRec, ptr %124, i32 0, i32 9
  store ptr null, ptr %125, align 8, !tbaa !45
  %126 = load i64, ptr %7, align 8, !tbaa !7
  %127 = load ptr, ptr %11, align 8, !tbaa !31
  %128 = getelementptr inbounds nuw %struct.CVDlsMemRec, ptr %127, i32 0, i32 3
  %129 = load i64, ptr %128, align 8, !tbaa !43
  %130 = load ptr, ptr %11, align 8, !tbaa !31
  %131 = getelementptr inbounds nuw %struct.CVDlsMemRec, ptr %130, i32 0, i32 2
  %132 = load i64, ptr %131, align 8, !tbaa !42
  %133 = load ptr, ptr %11, align 8, !tbaa !31
  %134 = getelementptr inbounds nuw %struct.CVDlsMemRec, ptr %133, i32 0, i32 4
  %135 = load i64, ptr %134, align 8, !tbaa !44
  %136 = call ptr @NewBandMat(i64 noundef %126, i64 noundef %129, i64 noundef %132, i64 noundef %135)
  %137 = load ptr, ptr %11, align 8, !tbaa !31
  %138 = getelementptr inbounds nuw %struct.CVDlsMemRec, ptr %137, i32 0, i32 9
  store ptr %136, ptr %138, align 8, !tbaa !45
  %139 = load ptr, ptr %11, align 8, !tbaa !31
  %140 = getelementptr inbounds nuw %struct.CVDlsMemRec, ptr %139, i32 0, i32 9
  %141 = load ptr, ptr %140, align 8, !tbaa !45
  %142 = icmp eq ptr %141, null
  br i1 %142, label %143, label %146

143:                                              ; preds = %120
  %144 = load ptr, ptr %10, align 8, !tbaa !9
  call void (ptr, i32, ptr, ptr, ptr, ...) @cvProcessError(ptr noundef %144, i32 noundef -4, ptr noundef @.str, ptr noundef @.str.1, ptr noundef @.str.4)
  %145 = load ptr, ptr %11, align 8, !tbaa !31
  call void @free(ptr noundef %145) #5
  store ptr null, ptr %11, align 8, !tbaa !31
  store i32 -4, ptr %5, align 4
  store i32 1, ptr %12, align 4
  br label %196

146:                                              ; preds = %120
  %147 = load ptr, ptr %11, align 8, !tbaa !31
  %148 = getelementptr inbounds nuw %struct.CVDlsMemRec, ptr %147, i32 0, i32 10
  store ptr null, ptr %148, align 8, !tbaa !46
  %149 = load i64, ptr %7, align 8, !tbaa !7
  %150 = load ptr, ptr %11, align 8, !tbaa !31
  %151 = getelementptr inbounds nuw %struct.CVDlsMemRec, ptr %150, i32 0, i32 3
  %152 = load i64, ptr %151, align 8, !tbaa !43
  %153 = load ptr, ptr %11, align 8, !tbaa !31
  %154 = getelementptr inbounds nuw %struct.CVDlsMemRec, ptr %153, i32 0, i32 2
  %155 = load i64, ptr %154, align 8, !tbaa !42
  %156 = load ptr, ptr %11, align 8, !tbaa !31
  %157 = getelementptr inbounds nuw %struct.CVDlsMemRec, ptr %156, i32 0, i32 3
  %158 = load i64, ptr %157, align 8, !tbaa !43
  %159 = call ptr @NewBandMat(i64 noundef %149, i64 noundef %152, i64 noundef %155, i64 noundef %158)
  %160 = load ptr, ptr %11, align 8, !tbaa !31
  %161 = getelementptr inbounds nuw %struct.CVDlsMemRec, ptr %160, i32 0, i32 10
  store ptr %159, ptr %161, align 8, !tbaa !46
  %162 = load ptr, ptr %11, align 8, !tbaa !31
  %163 = getelementptr inbounds nuw %struct.CVDlsMemRec, ptr %162, i32 0, i32 10
  %164 = load ptr, ptr %163, align 8, !tbaa !46
  %165 = icmp eq ptr %164, null
  br i1 %165, label %166, label %172

166:                                              ; preds = %146
  %167 = load ptr, ptr %10, align 8, !tbaa !9
  call void (ptr, i32, ptr, ptr, ptr, ...) @cvProcessError(ptr noundef %167, i32 noundef -4, ptr noundef @.str, ptr noundef @.str.1, ptr noundef @.str.4)
  %168 = load ptr, ptr %11, align 8, !tbaa !31
  %169 = getelementptr inbounds nuw %struct.CVDlsMemRec, ptr %168, i32 0, i32 9
  %170 = load ptr, ptr %169, align 8, !tbaa !45
  call void @DestroyMat(ptr noundef %170)
  %171 = load ptr, ptr %11, align 8, !tbaa !31
  call void @free(ptr noundef %171) #5
  store ptr null, ptr %11, align 8, !tbaa !31
  store i32 -4, ptr %5, align 4
  store i32 1, ptr %12, align 4
  br label %196

172:                                              ; preds = %146
  %173 = load ptr, ptr %11, align 8, !tbaa !31
  %174 = getelementptr inbounds nuw %struct.CVDlsMemRec, ptr %173, i32 0, i32 12
  store ptr null, ptr %174, align 8, !tbaa !47
  %175 = load i64, ptr %7, align 8, !tbaa !7
  %176 = call ptr @NewLintArray(i64 noundef %175)
  %177 = load ptr, ptr %11, align 8, !tbaa !31
  %178 = getelementptr inbounds nuw %struct.CVDlsMemRec, ptr %177, i32 0, i32 12
  store ptr %176, ptr %178, align 8, !tbaa !47
  %179 = load ptr, ptr %11, align 8, !tbaa !31
  %180 = getelementptr inbounds nuw %struct.CVDlsMemRec, ptr %179, i32 0, i32 12
  %181 = load ptr, ptr %180, align 8, !tbaa !47
  %182 = icmp eq ptr %181, null
  br i1 %182, label %183, label %192

183:                                              ; preds = %172
  %184 = load ptr, ptr %10, align 8, !tbaa !9
  call void (ptr, i32, ptr, ptr, ptr, ...) @cvProcessError(ptr noundef %184, i32 noundef -4, ptr noundef @.str, ptr noundef @.str.1, ptr noundef @.str.4)
  %185 = load ptr, ptr %11, align 8, !tbaa !31
  %186 = getelementptr inbounds nuw %struct.CVDlsMemRec, ptr %185, i32 0, i32 9
  %187 = load ptr, ptr %186, align 8, !tbaa !45
  call void @DestroyMat(ptr noundef %187)
  %188 = load ptr, ptr %11, align 8, !tbaa !31
  %189 = getelementptr inbounds nuw %struct.CVDlsMemRec, ptr %188, i32 0, i32 10
  %190 = load ptr, ptr %189, align 8, !tbaa !46
  call void @DestroyMat(ptr noundef %190)
  %191 = load ptr, ptr %11, align 8, !tbaa !31
  call void @free(ptr noundef %191) #5
  store ptr null, ptr %11, align 8, !tbaa !31
  store i32 -4, ptr %5, align 4
  store i32 1, ptr %12, align 4
  br label %196

192:                                              ; preds = %172
  %193 = load ptr, ptr %11, align 8, !tbaa !31
  %194 = load ptr, ptr %10, align 8, !tbaa !9
  %195 = getelementptr inbounds nuw %struct.CVodeMemRec, ptr %194, i32 0, i32 144
  store ptr %193, ptr %195, align 8, !tbaa !48
  store i32 0, ptr %5, align 4
  store i32 1, ptr %12, align 4
  br label %196

196:                                              ; preds = %192, %183, %166, %143, %95, %50, %26, %15
  call void @llvm.lifetime.end.p0(i64 8, ptr %11) #5
  call void @llvm.lifetime.end.p0(i64 8, ptr %10) #5
  %197 = load i32, ptr %5, align 4
  ret i32 %197
}