; Function Attrs: nounwind uwtable
define range(i32 -4, 1) i32 @CVBand(ptr noundef %0, i64 noundef %1, i64 noundef %2, i64 noundef %3) local_unnamed_addr #0 {
  %5 = icmp eq ptr %0, null
  br i1 %5, label %6, label %7

6:                                                ; preds = %4
  tail call void (ptr, i32, ptr, ptr, ptr, ...) @cvProcessError(ptr noundef null, i32 noundef -1, ptr noundef nonnull @.str, ptr noundef nonnull @.str.1, ptr noundef nonnull @.str.2) #7
  br label %58

7:                                                ; preds = %4
  %8 = getelementptr inbounds nuw i8, ptr %0, i64 448
  %9 = load ptr, ptr %8, align 8, !tbaa !3
  %10 = getelementptr inbounds nuw i8, ptr %9, i64 8
  %11 = load ptr, ptr %10, align 8, !tbaa !18
  %12 = getelementptr inbounds nuw i8, ptr %11, i64 32
  %13 = load ptr, ptr %12, align 8, !tbaa !21
  %14 = icmp eq ptr %13, null
  br i1 %14, label %15, label %16

15:                                               ; preds = %7
  tail call void (ptr, i32, ptr, ptr, ptr, ...) @cvProcessError(ptr noundef nonnull %0, i32 noundef -3, ptr noundef nonnull @.str, ptr noundef nonnull @.str.1, ptr noundef nonnull @.str.3) #7
  br label %58

16:                                               ; preds = %7
  %17 = getelementptr inbounds nuw i8, ptr %0, i64 1688
  %18 = load ptr, ptr %17, align 8, !tbaa !23
  %.not = icmp eq ptr %18, null
  br i1 %.not, label %20, label %19

19:                                               ; preds = %16
  tail call void %18(ptr noundef nonnull %0) #7
  br label %20

20:                                               ; preds = %19, %16
  %21 = getelementptr inbounds nuw i8, ptr %0, i64 1664
  store ptr @cvBandInit, ptr %21, align 8, !tbaa !24
  %22 = getelementptr inbounds nuw i8, ptr %0, i64 1672
  store ptr @cvBandSetup, ptr %22, align 8, !tbaa !25
  %23 = getelementptr inbounds nuw i8, ptr %0, i64 1680
  store ptr @cvBandSolve, ptr %23, align 8, !tbaa !26
  store ptr @cvBandFree, ptr %17, align 8, !tbaa !23
  %24 = tail call noalias dereferenceable_or_null(136) ptr @malloc(i64 noundef 136) #8
  %25 = icmp eq ptr %24, null
  br i1 %25, label %26, label %27

26:                                               ; preds = %20
  tail call void (ptr, i32, ptr, ptr, ptr, ...) @cvProcessError(ptr noundef nonnull %0, i32 noundef -4, ptr noundef nonnull @.str, ptr noundef nonnull @.str.1, ptr noundef nonnull @.str.4) #7
  br label %58

27:                                               ; preds = %20
  store i32 2, ptr %24, align 8, !tbaa !27
  %28 = getelementptr inbounds nuw i8, ptr %24, i64 40
  store i32 1, ptr %28, align 8, !tbaa !30
  %29 = getelementptr inbounds nuw i8, ptr %24, i64 56
  %30 = getelementptr inbounds nuw i8, ptr %24, i64 128
  store i64 0, ptr %30, align 8, !tbaa !31
  %31 = getelementptr inbounds nuw i8, ptr %0, i64 1780
  tail call void @llvm.memset.p0.i64(ptr noundef nonnull align 8 dereferenceable(16) %29, i8 0, i64 16, i1 false)
  store i32 1, ptr %31, align 4, !tbaa !32
  %32 = getelementptr inbounds nuw i8, ptr %24, i64 8
  store i64 %1, ptr %32, align 8, !tbaa !33
  %33 = getelementptr inbounds nuw i8, ptr %24, i64 16
  store i64 %3, ptr %33, align 8, !tbaa !34
  %34 = getelementptr inbounds nuw i8, ptr %24, i64 24
  store i64 %2, ptr %34, align 8, !tbaa !35
  %35 = or i64 %3, %2
  %or.cond.not82 = icmp sgt i64 %35, -1
  %.not77 = icmp slt i64 %3, %1
  %or.cond80 = and i1 %.not77, %or.cond.not82
  %.not78 = icmp slt i64 %2, %1
  %or.cond81 = and i1 %.not78, %or.cond80
  br i1 %or.cond81, label %37, label %36

36:                                               ; preds = %27
  tail call void (ptr, i32, ptr, ptr, ptr, ...) @cvProcessError(ptr noundef nonnull %0, i32 noundef -3, ptr noundef nonnull @.str, ptr noundef nonnull @.str.1, ptr noundef nonnull @.str.5) #7
  tail call void @free(ptr noundef nonnull %24) #7
  br label %58

37:                                               ; preds = %27
  %38 = add nuw nsw i64 %3, %2
  %.not79 = icmp sgt i64 %1, %38
  %39 = add nsw i64 %1, -1
  %40 = select i1 %.not79, i64 %38, i64 %39
  %41 = getelementptr inbounds nuw i8, ptr %24, i64 32
  store i64 %40, ptr %41, align 8, !tbaa !36
  %42 = getelementptr inbounds nuw i8, ptr %24, i64 72
  %43 = tail call ptr @NewBandMat(i64 noundef %1, i64 noundef %2, i64 noundef %3, i64 noundef %40) #7
  store ptr %43, ptr %42, align 8, !tbaa !37
  %44 = icmp eq ptr %43, null
  br i1 %44, label %45, label %46

45:                                               ; preds = %37
  tail call void (ptr, i32, ptr, ptr, ptr, ...) @cvProcessError(ptr noundef nonnull %0, i32 noundef -4, ptr noundef nonnull @.str, ptr noundef nonnull @.str.1, ptr noundef nonnull @.str.4) #7
  tail call void @free(ptr noundef nonnull %24) #7
  br label %58

46:                                               ; preds = %37
  %47 = getelementptr inbounds nuw i8, ptr %24, i64 80
  %48 = tail call ptr @NewBandMat(i64 noundef %1, i64 noundef %2, i64 noundef %3, i64 noundef %2) #7
  store ptr %48, ptr %47, align 8, !tbaa !38
  %49 = icmp eq ptr %48, null
  br i1 %49, label %50, label %51

50:                                               ; preds = %46
  tail call void (ptr, i32, ptr, ptr, ptr, ...) @cvProcessError(ptr noundef nonnull %0, i32 noundef -4, ptr noundef nonnull @.str, ptr noundef nonnull @.str.1, ptr noundef nonnull @.str.4) #7
  tail call void @DestroyMat(ptr noundef nonnull %43) #7
  tail call void @free(ptr noundef nonnull %24) #7
  br label %58

51:                                               ; preds = %46
  %52 = getelementptr inbounds nuw i8, ptr %24, i64 96
  %53 = tail call ptr @NewLintArray(i64 noundef %1) #7
  store ptr %53, ptr %52, align 8, !tbaa !39
  %54 = icmp eq ptr %53, null
  br i1 %54, label %55, label %56

55:                                               ; preds = %51
  tail call void (ptr, i32, ptr, ptr, ptr, ...) @cvProcessError(ptr noundef nonnull %0, i32 noundef -4, ptr noundef nonnull @.str, ptr noundef nonnull @.str.1, ptr noundef nonnull @.str.4) #7
  tail call void @DestroyMat(ptr noundef nonnull %43) #7
  tail call void @DestroyMat(ptr noundef nonnull %48) #7
  tail call void @free(ptr noundef nonnull %24) #7
  br label %58

56:                                               ; preds = %51
  %57 = getelementptr inbounds nuw i8, ptr %0, i64 1696
  store ptr %24, ptr %57, align 8, !tbaa !40
  br label %58

58:                                               ; preds = %56, %55, %50, %45, %36, %26, %15, %6
  %.0 = phi i32 [ -1, %6 ], [ -3, %15 ], [ -4, %26 ], [ -3, %36 ], [ -4, %45 ], [ -4, %50 ], [ -4, %55 ], [ 0, %56 ]
  ret i32 %.0
}